target datalayout = "e-m:e-p270:32:32-p271:32:32-p272:64:64-i64:64-i128:128-f80:128-n8:16:32:64-S128"
target triple = "x86_64-pc-linux-gnu"

%struct.cli_bm_patt = type { ptr, ptr, ptr, [4 x i32], i32, i32, ptr, i16, i16, i16, i8, i32, i32 }
%struct.cli_matcher = type { i32, ptr, ptr, ptr, ptr, i32, i32, i32, i32, i32, %struct.cli_hash_patt, %struct.cli_hash_wild, i32, i32, i32, i32, i32, ptr, ptr, ptr, ptr, ptr, ptr, i32, i32, i8, i8, ptr, i16, i8, i32, ptr, i32, i32, i32, ptr, ptr, i32, ptr, i64, i64, ptr }
%struct.cli_hash_patt = type { [3 x %struct.cli_htu32] }
%struct.cli_htu32 = type { ptr, i64, i64, i64 }
%struct.cli_hash_wild = type { [3 x %struct.cli_sz_hash] }
%struct.cli_sz_hash = type { ptr, ptr, i32 }
%struct.cli_bm_off = type { ptr, ptr, i32, i32 }
%struct.cli_target_info = type { i64, %struct.cli_exe_info, i32 }
%struct.cli_exe_info = type { ptr, i32, i32, i16, i32, i32, %struct.cli_hashset, i32, i32, i32, i32, i32, i32, i32, i32, i32, %struct.pe_image_file_hdr, %union.anon, [16 x %struct.pe_image_data_dir] }
%struct.cli_hashset = type { ptr, ptr, ptr, i32, i32, i32, i32 }
%struct.pe_image_file_hdr = type { i32, i16, i16, i32, i32, i32, i16, i16 }
%union.anon = type { %struct.pe_image_optional_hdr64 }
%struct.pe_image_optional_hdr64 = type { i16, i8, i8, i32, i32, i32, i32, i32, i64, i32, i32, i16, i16, i16, i16, i16, i16, i32, i32, i32, i32, i16, i16, i64, i64, i64, i64, i32, i32 }
%struct.pe_image_data_dir = type { i32, i32 }

@.str.7 = private unnamed_addr constant [56 x i8] c"cli_bm_initoff: Can't allocate memory for data->offtab\0A\00", align 1
@.str.8 = private unnamed_addr constant [56 x i8] c"cli_bm_initoff: Can't allocate memory for data->offset\0A\00", align 1
@.str.9 = private unnamed_addr constant [69 x i8] c"cli_bm_initoff: Can't calculate relative offset in signature for %s\0A\00", align 1

; Function Attrs: nounwind uwtable
define i32 @cli_bm_initoff(ptr noundef %0, ptr noundef %1, ptr noundef %2) #0 {
  %4 = alloca i32, align 4
  %5 = alloca ptr, align 8
  %6 = alloca ptr, align 8
  %7 = alloca ptr, align 8
  %8 = alloca i32, align 4
  %9 = alloca i32, align 4
  %10 = alloca ptr, align 8
  store ptr %0, ptr %5, align 8
  store ptr %1, ptr %6, align 8
  store ptr %2, ptr %7, align 8
  %11 = load ptr, ptr %5, align 8
  %12 = getelementptr inbounds %struct.cli_matcher, ptr %11, i32 0, i32 7
  %13 = load i32, ptr %12, align 8
  %14 = icmp ne i32 %13, 0
  br i1 %14, label %24, label %15

15:                                               ; preds = %3
  %16 = load ptr, ptr %6, align 8
  %17 = getelementptr inbounds %struct.cli_bm_off, ptr %16, i32 0, i32 0
  store ptr null, ptr %17, align 8
  %18 = load ptr, ptr %6, align 8
  %19 = getelementptr inbounds %struct.cli_bm_off, ptr %18, i32 0, i32 1
  store ptr null, ptr %19, align 8
  %20 = load ptr, ptr %6, align 8
  %21 = getelementptr inbounds %struct.cli_bm_off, ptr %20, i32 0, i32 3
  store i32 0, ptr %21, align 4
  %22 = load ptr, ptr %6, align 8
  %23 = getelementptr inbounds %struct.cli_bm_off, ptr %22, i32 0, i32 2
  store i32 0, ptr %23, align 8
  store i32 0, ptr %4, align 4
  br label %265

24:                                               ; preds = %3
  %25 = load ptr, ptr %6, align 8
  %26 = getelementptr inbounds %struct.cli_bm_off, ptr %25, i32 0, i32 3
  store i32 0, ptr %26, align 4
  %27 = load ptr, ptr %6, align 8
  %28 = getelementptr inbounds %struct.cli_bm_off, ptr %27, i32 0, i32 2
  store i32 0, ptr %28, align 8
  %29 = load ptr, ptr %5, align 8
  %30 = getelementptr inbounds %struct.cli_matcher, ptr %29, i32 0, i32 7
  %31 = load i32, ptr %30, align 8
  %32 = zext i32 %31 to i64
  %33 = mul i64 %32, 4
  %34 = call noalias ptr @malloc(i64 noundef %33) #6
  %35 = load ptr, ptr %6, align 8
  %36 = getelementptr inbounds %struct.cli_bm_off, ptr %35, i32 0, i32 1
  store ptr %34, ptr %36, align 8
  %37 = load ptr, ptr %6, align 8
  %38 = getelementptr inbounds %struct.cli_bm_off, ptr %37, i32 0, i32 1
  %39 = load ptr, ptr %38, align 8
  %40 = icmp ne ptr %39, null
  br i1 %40, label %42, label %41

41:                                               ; preds = %24
  call void (ptr, ...) @cli_errmsg(ptr noundef @.str.7)
  store i32 20, ptr %4, align 4
  br label %265

42:                                               ; preds = %24
  %43 = load ptr, ptr %5, align 8
  %44 = getelementptr inbounds %struct.cli_matcher, ptr %43, i32 0, i32 7
  %45 = load i32, ptr %44, align 8
  %46 = zext i32 %45 to i64
  %47 = mul i64 %46, 4
  %48 = call noalias ptr @malloc(i64 noundef %47) #6
  %49 = load ptr, ptr %6, align 8
  %50 = getelementptr inbounds %struct.cli_bm_off, ptr %49, i32 0, i32 0
  store ptr %48, ptr %50, align 8
  %51 = load ptr, ptr %6, align 8
  %52 = getelementptr inbounds %struct.cli_bm_off, ptr %51, i32 0, i32 0
  %53 = load ptr, ptr %52, align 8
  %54 = icmp ne ptr %53, null
  br i1 %54, label %59, label %55

55:                                               ; preds = %42
  call void (ptr, ...) @cli_errmsg(ptr noundef @.str.8)
  %56 = load ptr, ptr %6, align 8
  %57 = getelementptr inbounds %struct.cli_bm_off, ptr %56, i32 0, i32 1
  %58 = load ptr, ptr %57, align 8
  call void @free(ptr noundef %58) #7
  store i32 20, ptr %4, align 4
  br label %265

59:                                               ; preds = %42
  store i32 0, ptr %9, align 4
  br label %60

60:                                               ; preds = %254, %59
  %61 = load i32, ptr %9, align 4
  %62 = load ptr, ptr %5, align 8
  %63 = getelementptr inbounds %struct.cli_matcher, ptr %62, i32 0, i32 7
  %64 = load i32, ptr %63, align 8
  %65 = icmp ult i32 %61, %64
  br i1 %65, label %66, label %257

66:                                               ; preds = %60
  %67 = load ptr, ptr %5, align 8
  %68 = getelementptr inbounds %struct.cli_matcher, ptr %67, i32 0, i32 3
  %69 = load ptr, ptr %68, align 8
  %70 = load i32, ptr %9, align 4
  %71 = zext i32 %70 to i64
  %72 = getelementptr inbounds ptr, ptr %69, i64 %71
  %73 = load ptr, ptr %72, align 8
  store ptr %73, ptr %10, align 8
  %74 = load ptr, ptr %10, align 8
  %75 = getelementptr inbounds %struct.cli_bm_patt, ptr %74, i32 0, i32 3
  %76 = getelementptr inbounds [4 x i32], ptr %75, i64 0, i64 0
  %77 = load i32, ptr %76, align 8
  %78 = icmp eq i32 %77, 1
  br i1 %78, label %79, label %116

79:                                               ; preds = %66
  %80 = load ptr, ptr %10, align 8
  %81 = getelementptr inbounds %struct.cli_bm_patt, ptr %80, i32 0, i32 4
  %82 = load i32, ptr %81, align 8
  %83 = load ptr, ptr %10, align 8
  %84 = getelementptr inbounds %struct.cli_bm_patt, ptr %83, i32 0, i32 8
  %85 = load i16, ptr %84, align 2
  %86 = zext i16 %85 to i32
  %87 = add i32 %82, %86
  %88 = load ptr, ptr %6, align 8
  %89 = getelementptr inbounds %struct.cli_bm_off, ptr %88, i32 0, i32 1
  %90 = load ptr, ptr %89, align 8
  %91 = load ptr, ptr %6, align 8
  %92 = getelementptr inbounds %struct.cli_bm_off, ptr %91, i32 0, i32 2
  %93 = load i32, ptr %92, align 8
  %94 = zext i32 %93 to i64
  %95 = getelementptr inbounds i32, ptr %90, i64 %94
  store i32 %87, ptr %95, align 4
  %96 = load ptr, ptr %6, align 8
  %97 = getelementptr inbounds %struct.cli_bm_off, ptr %96, i32 0, i32 1
  %98 = load ptr, ptr %97, align 8
  %99 = load ptr, ptr %6, align 8
  %100 = getelementptr inbounds %struct.cli_bm_off, ptr %99, i32 0, i32 2
  %101 = load i32, ptr %100, align 8
  %102 = zext i32 %101 to i64
  %103 = getelementptr inbounds i32, ptr %98, i64 %102
  %104 = load i32, ptr %103, align 4
  %105 = zext i32 %104 to i64
  %106 = load ptr, ptr %7, align 8
  %107 = getelementptr inbounds %struct.cli_target_info, ptr %106, i32 0, i32 0
  %108 = load i64, ptr %107, align 8
  %109 = icmp sge i64 %105, %108
  br i1 %109, label %110, label %111

110:                                              ; preds = %79
  br label %254

111:                                              ; preds = %79
  %112 = load ptr, ptr %6, align 8
  %113 = getelementptr inbounds %struct.cli_bm_off, ptr %112, i32 0, i32 2
  %114 = load i32, ptr %113, align 8
  %115 = add i32 %114, 1
  store i32 %115, ptr %113, align 8
  br label %253

116:                                              ; preds = %66
  %117 = load ptr, ptr %7, align 8
  %118 = load ptr, ptr %5, align 8
  %119 = getelementptr inbounds %struct.cli_matcher, ptr %118, i32 0, i32 0
  %120 = load i32, ptr %119, align 8
  %121 = load ptr, ptr %10, align 8
  %122 = getelementptr inbounds %struct.cli_bm_patt, ptr %121, i32 0, i32 3
  %123 = getelementptr inbounds [4 x i32], ptr %122, i64 0, i64 0
  %124 = load ptr, ptr %6, align 8
  %125 = getelementptr inbounds %struct.cli_bm_off, ptr %124, i32 0, i32 0
  %126 = load ptr, ptr %125, align 8
  %127 = load ptr, ptr %10, align 8
  %128 = getelementptr inbounds %struct.cli_bm_patt, ptr %127, i32 0, i32 4
  %129 = load i32, ptr %128, align 8
  %130 = zext i32 %129 to i64
  %131 = getelementptr inbounds i32, ptr %126, i64 %130
  %132 = call i32 @cli_caloff(ptr noundef null, ptr noundef %117, i32 noundef %120, ptr noundef %123, ptr noundef %131, ptr noundef null)
  store i32 %132, ptr %8, align 4
  %133 = icmp ne i32 0, %132
  br i1 %133, label %134, label %145

134:                                              ; preds = %116
  %135 = load ptr, ptr %10, align 8
  %136 = getelementptr inbounds %struct.cli_bm_patt, ptr %135, i32 0, i32 2
  %137 = load ptr, ptr %136, align 8
  call void (ptr, ...) @cli_errmsg(ptr noundef @.str.9, ptr noundef %137)
  %138 = load ptr, ptr %6, align 8
  %139 = getelementptr inbounds %struct.cli_bm_off, ptr %138, i32 0, i32 1
  %140 = load ptr, ptr %139, align 8
  call void @free(ptr noundef %140) #7
  %141 = load ptr, ptr %6, align 8
  %142 = getelementptr inbounds %struct.cli_bm_off, ptr %141, i32 0, i32 0
  %143 = load ptr, ptr %142, align 8
  call void @free(ptr noundef %143) #7
  %144 = load i32, ptr %8, align 4
  store i32 %144, ptr %4, align 4
  br label %265

145:                                              ; preds = %116
  %146 = load ptr, ptr %6, align 8
  %147 = getelementptr inbounds %struct.cli_bm_off, ptr %146, i32 0, i32 0
  %148 = load ptr, ptr %147, align 8
  %149 = load ptr, ptr %10, align 8
  %150 = getelementptr inbounds %struct.cli_bm_patt, ptr %149, i32 0, i32 4
  %151 = load i32, ptr %150, align 8
  %152 = zext i32 %151 to i64
  %153 = getelementptr inbounds i32, ptr %148, i64 %152
  %154 = load i32, ptr %153, align 4
  %155 = icmp ne i32 %154, -2
  br i1 %155, label %156, label %251

156:                                              ; preds = %145
  %157 = load ptr, ptr %6, align 8
  %158 = getelementptr inbounds %struct.cli_bm_off, ptr %157, i32 0, i32 0
  %159 = load ptr, ptr %158, align 8
  %160 = load ptr, ptr %10, align 8
  %161 = getelementptr inbounds %struct.cli_bm_patt, ptr %160, i32 0, i32 4
  %162 = load i32, ptr %161, align 8
  %163 = zext i32 %162 to i64
  %164 = getelementptr inbounds i32, ptr %159, i64 %163
  %165 = load i32, ptr %164, align 4
  %166 = load ptr, ptr %10, align 8
  %167 = getelementptr inbounds %struct.cli_bm_patt, ptr %166, i32 0, i32 7
  %168 = load i16, ptr %167, align 8
  %169 = zext i16 %168 to i32
  %170 = add i32 %165, %169
  %171 = zext i32 %170 to i64
  %172 = load ptr, ptr %7, align 8
  %173 = getelementptr inbounds %struct.cli_target_info, ptr %172, i32 0, i32 0
  %174 = load i64, ptr %173, align 8
  %175 = icmp sle i64 %171, %174
  br i1 %175, label %176, label %251

176:                                              ; preds = %156
  %177 = load ptr, ptr %6, align 8
  %178 = getelementptr inbounds %struct.cli_bm_off, ptr %177, i32 0, i32 2
  %179 = load i32, ptr %178, align 8
  %180 = icmp ne i32 %179, 0
  br i1 %180, label %181, label %207

181:                                              ; preds = %176
  %182 = load ptr, ptr %6, align 8
  %183 = getelementptr inbounds %struct.cli_bm_off, ptr %182, i32 0, i32 0
  %184 = load ptr, ptr %183, align 8
  %185 = load ptr, ptr %10, align 8
  %186 = getelementptr inbounds %struct.cli_bm_patt, ptr %185, i32 0, i32 4
  %187 = load i32, ptr %186, align 8
  %188 = zext i32 %187 to i64
  %189 = getelementptr inbounds i32, ptr %184, i64 %188
  %190 = load i32, ptr %189, align 4
  %191 = load ptr, ptr %10, align 8
  %192 = getelementptr inbounds %struct.cli_bm_patt, ptr %191, i32 0, i32 8
  %193 = load i16, ptr %192, align 2
  %194 = zext i16 %193 to i32
  %195 = add i32 %190, %194
  %196 = load ptr, ptr %6, align 8
  %197 = getelementptr inbounds %struct.cli_bm_off, ptr %196, i32 0, i32 1
  %198 = load ptr, ptr %197, align 8
  %199 = load ptr, ptr %6, align 8
  %200 = getelementptr inbounds %struct.cli_bm_off, ptr %199, i32 0, i32 2
  %201 = load i32, ptr %200, align 8
  %202 = sub i32 %201, 1
  %203 = zext i32 %202 to i64
  %204 = getelementptr inbounds i32, ptr %198, i64 %203
  %205 = load i32, ptr %204, align 4
  %206 = icmp ne i32 %195, %205
  br i1 %206, label %207, label %250

207:                                              ; preds = %181, %176
  %208 = load ptr, ptr %6, align 8
  %209 = getelementptr inbounds %struct.cli_bm_off, ptr %208, i32 0, i32 0
  %210 = load ptr, ptr %209, align 8
  %211 = load ptr, ptr %10, align 8
  %212 = getelementptr inbounds %struct.cli_bm_patt, ptr %211, i32 0, i32 4
  %213 = load i32, ptr %212, align 8
  %214 = zext i32 %213 to i64
  %215 = getelementptr inbounds i32, ptr %210, i64 %214
  %216 = load i32, ptr %215, align 4
  %217 = load ptr, ptr %10, align 8
  %218 = getelementptr inbounds %struct.cli_bm_patt, ptr %217, i32 0, i32 8
  %219 = load i16, ptr %218, align 2
  %220 = zext i16 %219 to i32
  %221 = add i32 %216, %220
  %222 = load ptr, ptr %6, align 8
  %223 = getelementptr inbounds %struct.cli_bm_off, ptr %222, i32 0, i32 1
  %224 = load ptr, ptr %223, align 8
  %225 = load ptr, ptr %6, align 8
  %226 = getelementptr inbounds %struct.cli_bm_off, ptr %225, i32 0, i32 2
  %227 = load i32, ptr %226, align 8
  %228 = zext i32 %227 to i64
  %229 = getelementptr inbounds i32, ptr %224, i64 %228
  store i32 %221, ptr %229, align 4
  %230 = load ptr, ptr %6, align 8
  %231 = getelementptr inbounds %struct.cli_bm_off, ptr %230, i32 0, i32 1
  %232 = load ptr, ptr %231, align 8
  %233 = load ptr, ptr %6, align 8
  %234 = getelementptr inbounds %struct.cli_bm_off, ptr %233, i32 0, i32 2
  %235 = load i32, ptr %234, align 8
  %236 = zext i32 %235 to i64
  %237 = getelementptr inbounds i32, ptr %232, i64 %236
  %238 = load i32, ptr %237, align 4
  %239 = zext i32 %238 to i64
  %240 = load ptr, ptr %7, align 8
  %241 = getelementptr inbounds %struct.cli_target_info, ptr %240, i32 0, i32 0
  %242 = load i64, ptr %241, align 8
  %243 = icmp sge i64 %239, %242
  br i1 %243, label %244, label %245

244:                                              ; preds = %207
  br label %254

245:                                              ; preds = %207
  %246 = load ptr, ptr %6, align 8
  %247 = getelementptr inbounds %struct.cli_bm_off, ptr %246, i32 0, i32 2
  %248 = load i32, ptr %247, align 8
  %249 = add i32 %248, 1
  store i32 %249, ptr %247, align 8
  br label %250

250:                                              ; preds = %245, %181
  br label %251

251:                                              ; preds = %250, %156, %145
  br label %252

252:                                              ; preds = %251
  br label %253

253:                                              ; preds = %252, %111
  br label %254

254:                                              ; preds = %253, %244, %110
  %255 = load i32, ptr %9, align 4
  %256 = add i32 %255, 1
  store i32 %256, ptr %9, align 4
  br label %60

257:                                              ; preds = %60
  %258 = load ptr, ptr %6, align 8
  %259 = getelementptr inbounds %struct.cli_bm_off, ptr %258, i32 0, i32 1
  %260 = load ptr, ptr %259, align 8
  %261 = load ptr, ptr %6, align 8
  %262 = getelementptr inbounds %struct.cli_bm_off, ptr %261, i32 0, i32 2
  %263 = load i32, ptr %262, align 8
  %264 = zext i32 %263 to i64
  call void @cli_qsort(ptr noundef %260, i64 noundef %264, i64 noundef 4, ptr noundef null)
  store i32 0, ptr %4, align 4
  br label %265

265:                                              ; preds = %257, %134, %55, %41, %15
  %266 = load i32, ptr %4, align 4
  ret i32 %266
}