; Function Attrs: nounwind uwtable
define i32 @cli_bm_initoff(ptr nocapture noundef readonly %0, ptr nocapture noundef %1, ptr noundef %2) local_unnamed_addr #0 {
  %4 = getelementptr inbounds i8, ptr %0, i64 48
  %5 = load i32, ptr %4, align 8
  %.not = icmp eq i32 %5, 0
  %6 = getelementptr inbounds i8, ptr %1, i64 16
  br i1 %.not, label %7, label %8

7:                                                ; preds = %3
  tail call void @llvm.memset.p0.i64(ptr noundef nonnull align 8 dereferenceable(24) %1, i8 0, i64 24, i1 false)
  br label %105

8:                                                ; preds = %3
  %9 = getelementptr inbounds i8, ptr %1, i64 20
  store i32 0, ptr %9, align 4
  store i32 0, ptr %6, align 8
  %10 = load i32, ptr %4, align 8
  %11 = zext i32 %10 to i64
  %12 = shl nuw nsw i64 %11, 2
  %13 = tail call noalias ptr @malloc(i64 noundef %12) #10
  %14 = getelementptr inbounds i8, ptr %1, i64 8
  store ptr %13, ptr %14, align 8
  %.not64 = icmp eq ptr %13, null
  br i1 %.not64, label %15, label %16

15:                                               ; preds = %8
  tail call void (ptr, ...) @cli_errmsg(ptr noundef nonnull @.str.7) #8
  br label %105

16:                                               ; preds = %8
  %17 = load i32, ptr %4, align 8
  %18 = zext i32 %17 to i64
  %19 = shl nuw nsw i64 %18, 2
  %20 = tail call noalias ptr @malloc(i64 noundef %19) #10
  store ptr %20, ptr %1, align 8
  %.not65 = icmp eq ptr %20, null
  br i1 %.not65, label %23, label %.preheader

.preheader:                                       ; preds = %16
  %21 = load i32, ptr %4, align 8
  %.not75 = icmp eq i32 %21, 0
  br i1 %.not75, label %._crit_edge, label %.lr.ph

.lr.ph:                                           ; preds = %.preheader
  %22 = getelementptr inbounds i8, ptr %0, i64 24
  br label %25

23:                                               ; preds = %16
  tail call void (ptr, ...) @cli_errmsg(ptr noundef nonnull @.str.8) #8
  %24 = load ptr, ptr %14, align 8
  tail call void @free(ptr noundef %24) #8
  br label %105

25:                                               ; preds = %.lr.ph, %98
  %indvars.iv = phi i64 [ 0, %.lr.ph ], [ %indvars.iv.next, %98 ]
  %26 = load ptr, ptr %22, align 8
  %27 = getelementptr inbounds ptr, ptr %26, i64 %indvars.iv
  %28 = load ptr, ptr %27, align 8
  %29 = getelementptr inbounds i8, ptr %28, i64 24
  %30 = load i32, ptr %29, align 8
  %31 = icmp eq i32 %30, 1
  br i1 %31, label %32, label %50

32:                                               ; preds = %25
  %33 = getelementptr inbounds i8, ptr %28, i64 40
  %34 = load i32, ptr %33, align 8
  %35 = getelementptr inbounds i8, ptr %28, i64 58
  %36 = load i16, ptr %35, align 2
  %37 = zext i16 %36 to i32
  %38 = add i32 %34, %37
  %39 = load ptr, ptr %14, align 8
  %40 = load i32, ptr %6, align 8
  %41 = zext i32 %40 to i64
  %42 = getelementptr inbounds i32, ptr %39, i64 %41
  store i32 %38, ptr %42, align 4
  %43 = load ptr, ptr %14, align 8
  %44 = load i32, ptr %6, align 8
  %45 = zext i32 %44 to i64
  %46 = getelementptr inbounds i32, ptr %43, i64 %45
  %47 = load i32, ptr %46, align 4
  %48 = zext i32 %47 to i64
  %49 = load i64, ptr %2, align 8
  %.not72 = icmp sgt i64 %49, %48
  br i1 %.not72, label %.sink.split, label %98

50:                                               ; preds = %25
  %51 = load i32, ptr %0, align 8
  %52 = load ptr, ptr %1, align 8
  %53 = getelementptr inbounds i8, ptr %28, i64 40
  %54 = load i32, ptr %53, align 8
  %55 = zext i32 %54 to i64
  %56 = getelementptr inbounds i32, ptr %52, i64 %55
  %57 = tail call i32 @cli_caloff(ptr noundef null, ptr noundef %2, i32 noundef %51, ptr noundef nonnull %29, ptr noundef %56, ptr noundef null) #8
  %.not66 = icmp eq i32 %57, 0
  br i1 %.not66, label %63, label %58

58:                                               ; preds = %50
  %59 = getelementptr inbounds i8, ptr %28, i64 16
  %60 = load ptr, ptr %59, align 8
  tail call void (ptr, ...) @cli_errmsg(ptr noundef nonnull @.str.9, ptr noundef %60) #8
  %61 = load ptr, ptr %14, align 8
  tail call void @free(ptr noundef %61) #8
  %62 = load ptr, ptr %1, align 8
  tail call void @free(ptr noundef %62) #8
  br label %105

63:                                               ; preds = %50
  %64 = load ptr, ptr %1, align 8
  %65 = load i32, ptr %53, align 8
  %66 = zext i32 %65 to i64
  %67 = getelementptr inbounds i32, ptr %64, i64 %66
  %68 = load i32, ptr %67, align 4
  %.not67 = icmp eq i32 %68, -2
  br i1 %.not67, label %98, label %69

69:                                               ; preds = %63
  %70 = getelementptr inbounds i8, ptr %28, i64 56
  %71 = load i16, ptr %70, align 8
  %72 = zext i16 %71 to i32
  %73 = add i32 %68, %72
  %74 = zext i32 %73 to i64
  %75 = load i64, ptr %2, align 8
  %.not68 = icmp slt i64 %75, %74
  br i1 %.not68, label %98, label %76

76:                                               ; preds = %69
  %77 = load i32, ptr %6, align 8
  %.not69 = icmp eq i32 %77, 0
  %.phi.trans.insert = getelementptr inbounds i8, ptr %28, i64 58
  %.pre = load i16, ptr %.phi.trans.insert, align 2
  br i1 %.not69, label %._crit_edge79, label %78

._crit_edge79:                                    ; preds = %76
  %.pre80 = load ptr, ptr %14, align 8
  %.pre83 = zext i16 %.pre to i32
  %.pre84 = add i32 %68, %.pre83
  br label %86

78:                                               ; preds = %76
  %79 = zext i16 %.pre to i32
  %80 = add i32 %68, %79
  %81 = load ptr, ptr %14, align 8
  %82 = add i32 %77, -1
  %83 = zext i32 %82 to i64
  %84 = getelementptr inbounds i32, ptr %81, i64 %83
  %85 = load i32, ptr %84, align 4
  %.not70 = icmp eq i32 %80, %85
  br i1 %.not70, label %98, label %86

86:                                               ; preds = %._crit_edge79, %78
  %.pre-phi85 = phi i32 [ %.pre84, %._crit_edge79 ], [ %80, %78 ]
  %87 = phi ptr [ %.pre80, %._crit_edge79 ], [ %81, %78 ]
  %88 = zext i32 %77 to i64
  %89 = getelementptr inbounds i32, ptr %87, i64 %88
  store i32 %.pre-phi85, ptr %89, align 4
  %90 = load ptr, ptr %14, align 8
  %91 = load i32, ptr %6, align 8
  %92 = zext i32 %91 to i64
  %93 = getelementptr inbounds i32, ptr %90, i64 %92
  %94 = load i32, ptr %93, align 4
  %95 = zext i32 %94 to i64
  %96 = load i64, ptr %2, align 8
  %.not71 = icmp sgt i64 %96, %95
  br i1 %.not71, label %.sink.split, label %98

.sink.split:                                      ; preds = %86, %32
  %.sink88 = phi i32 [ %44, %32 ], [ %91, %86 ]
  %97 = add i32 %.sink88, 1
  store i32 %97, ptr %6, align 8
  br label %98

98:                                               ; preds = %.sink.split, %63, %69, %78, %86, %32
  %indvars.iv.next = add nuw nsw i64 %indvars.iv, 1
  %99 = load i32, ptr %4, align 8
  %100 = zext i32 %99 to i64
  %101 = icmp ult i64 %indvars.iv.next, %100
  br i1 %101, label %25, label %._crit_edge.loopexit

._crit_edge.loopexit:                             ; preds = %98
  %.pre81 = load ptr, ptr %14, align 8
  %.pre82 = load i32, ptr %6, align 8
  %102 = zext i32 %.pre82 to i64
  br label %._crit_edge

._crit_edge:                                      ; preds = %._crit_edge.loopexit, %.preheader
  %103 = phi i64 [ %102, %._crit_edge.loopexit ], [ 0, %.preheader ]
  %104 = phi ptr [ %.pre81, %._crit_edge.loopexit ], [ %13, %.preheader ]
  tail call void @cli_qsort(ptr noundef %104, i64 noundef %103, i64 noundef 4, ptr noundef null) #8
  br label %105

105:                                              ; preds = %._crit_edge, %58, %23, %15, %7
  %.0 = phi i32 [ %57, %58 ], [ 0, %._crit_edge ], [ 20, %23 ], [ 20, %15 ], [ 0, %7 ]
  ret i32 %.0
}